; Function Attrs: mustprogress nofree norecurse nosync nounwind willreturn memory(argmem: read) uwtable
define i64 @LZ4F_compressFrameBound(i64 noundef %0, ptr noundef readonly captures(address_is_null) %1) local_unnamed_addr #2 {
  %.not = icmp eq ptr %1, null
  br i1 %.not, label %LZ4F_getBlockSize.exit.thread47.i, label %3

3:                                                ; preds = %2
  %.sroa.0.0.copyload = load i32, ptr %1, align 8, !tbaa !10
  %.sroa.52.0..sroa_idx = getelementptr inbounds nuw i8, ptr %1, i64 8
  %.sroa.52.0.copyload = load i32, ptr %.sroa.52.0..sroa_idx, align 8, !tbaa !10
  %.sroa.63.0..sroa_idx = getelementptr inbounds nuw i8, ptr %1, i64 28
  %.sroa.63.0.copyload = load i32, ptr %.sroa.63.0..sroa_idx, align 4, !tbaa !10
  %.else.val40.fr.i = freeze i32 %.sroa.0.0.copyload
  %4 = icmp eq i32 %.else.val40.fr.i, 0
  br i1 %4, label %LZ4F_getBlockSize.exit.thread47.i, label %5

5:                                                ; preds = %3
  %6 = and i32 %.else.val40.fr.i, -4
  %or.cond.not.i.i = icmp eq i32 %6, 4
  br i1 %or.cond.not.i.i, label %LZ4F_getBlockSize.exit.thread47.i, label %LZ4F_compressBound_internal.exit

LZ4F_getBlockSize.exit.thread47.i:                ; preds = %2, %5, %3
  %.sroa.63.012 = phi i32 [ %.sroa.63.0.copyload, %3 ], [ %.sroa.63.0.copyload, %5 ], [ 0, %2 ]
  %.sroa.52.010 = phi i32 [ %.sroa.52.0.copyload, %3 ], [ %.sroa.52.0.copyload, %5 ], [ 0, %2 ]
  %.ph.i = phi i32 [ 4, %3 ], [ %.else.val40.fr.i, %5 ], [ 4, %2 ]
  %7 = add nsw i32 %.ph.i, -4
  %8 = zext nneg i32 %7 to i64
  %9 = getelementptr inbounds nuw [4 x i64], ptr @LZ4F_getBlockSize.blockSizes, i64 0, i64 %8
  %10 = load i64, ptr %9, align 8, !tbaa !8
  br label %LZ4F_compressBound_internal.exit

LZ4F_compressBound_internal.exit:                 ; preds = %5, %LZ4F_getBlockSize.exit.thread47.i
  %.sroa.63.011 = phi i32 [ %.sroa.63.012, %LZ4F_getBlockSize.exit.thread47.i ], [ %.sroa.63.0.copyload, %5 ]
  %.sroa.52.09 = phi i32 [ %.sroa.52.010, %LZ4F_getBlockSize.exit.thread47.i ], [ %.sroa.52.0.copyload, %5 ]
  %.0.i45.i = phi i64 [ %10, %LZ4F_getBlockSize.exit.thread47.i ], [ -2, %5 ]
  %11 = zext i32 %.sroa.63.011 to i64
  %12 = shl nuw nsw i64 %11, 2
  %13 = zext i32 %.sroa.52.09 to i64
  %14 = shl nuw nsw i64 %13, 2
  %15 = add nuw nsw i64 %12, 4
  %16 = add i64 %.0.i45.i, -1
  %17 = udiv i64 %0, %.0.i45.i
  %18 = and i64 %16, %0
  %19 = icmp ne i64 %18, 0
  %20 = zext i1 %19 to i64
  %21 = add i64 %17, %20
  %22 = and i64 %21, 4294967295
  %23 = mul i64 %22, %15
  %24 = and i64 %17, 4294967295
  %25 = mul i64 %24, %.0.i45.i
  %26 = add nuw nsw i64 %14, 23
  %27 = add i64 %26, %18
  %28 = add i64 %27, %25
  %29 = add i64 %28, %23
  ret i64 %29
}